TN:
SF:/home/meteoriw/CPP4_3DViewer_v2.0-1/src/unit-tests/tests.cpp
FN:103,109,_ZN28ViewerModelTest_loadobj_Test8TestBodyEv
FN:103,109,_ZN28ViewerModelTest_loadobj_TestC2Ev
FN:103,109,_ZN28ViewerModelTest_loadobj_TestD0Ev
FN:103,109,_ZN28ViewerModelTest_loadobj_TestD2Ev
FN:12,12,_ZN27ViewerModelTest_Test_1_Test8TestBodyEv
FN:12,12,_ZN27ViewerModelTest_Test_1_TestC2Ev
FN:12,12,_ZN27ViewerModelTest_Test_1_TestD0Ev
FN:12,12,_ZN27ViewerModelTest_Test_1_TestD2Ev
FN:28,28,_ZN27ViewerModelTest_Test_2_Test8TestBodyEv
FN:28,28,_ZN27ViewerModelTest_Test_2_TestC2Ev
FN:28,28,_ZN27ViewerModelTest_Test_2_TestD0Ev
FN:28,28,_ZN27ViewerModelTest_Test_2_TestD2Ev
FN:44,44,_ZN27ViewerModelTest_Test_3_Test8TestBodyEv
FN:44,44,_ZN27ViewerModelTest_Test_3_TestC2Ev
FN:44,44,_ZN27ViewerModelTest_Test_3_TestD0Ev
FN:44,44,_ZN27ViewerModelTest_Test_3_TestD2Ev
FN:52,52,_ZN27ViewerModelTest_Test_4_Test8TestBodyEv
FN:52,52,_ZN27ViewerModelTest_Test_4_TestC2Ev
FN:52,52,_ZN27ViewerModelTest_Test_4_TestD0Ev
FN:52,52,_ZN27ViewerModelTest_Test_4_TestD2Ev
FN:7,10,main
FN:72,72,_ZN39ViewerModelTest_Test_SetFacetWidth_Test8TestBodyEv
FN:72,72,_ZN39ViewerModelTest_Test_SetFacetWidth_TestC2Ev
FN:72,72,_ZN39ViewerModelTest_Test_SetFacetWidth_TestD0Ev
FN:72,72,_ZN39ViewerModelTest_Test_SetFacetWidth_TestD2Ev
FN:85,85,_ZN34ViewerModelTest_Test_Strategy_Test8TestBodyEv
FN:85,85,_ZN34ViewerModelTest_Test_Strategy_TestC2Ev
FN:85,85,_ZN34ViewerModelTest_Test_Strategy_TestD0Ev
FN:85,85,_ZN34ViewerModelTest_Test_Strategy_TestD2Ev
FNDA:2,_ZN28ViewerModelTest_loadobj_Test8TestBodyEv
FNDA:2,_ZN28ViewerModelTest_loadobj_TestC2Ev
FNDA:2,_ZN28ViewerModelTest_loadobj_TestD0Ev
FNDA:2,_ZN28ViewerModelTest_loadobj_TestD2Ev
FNDA:2,_ZN27ViewerModelTest_Test_1_Test8TestBodyEv
FNDA:2,_ZN27ViewerModelTest_Test_1_TestC2Ev
FNDA:2,_ZN27ViewerModelTest_Test_1_TestD0Ev
FNDA:2,_ZN27ViewerModelTest_Test_1_TestD2Ev
FNDA:2,_ZN27ViewerModelTest_Test_2_Test8TestBodyEv
FNDA:2,_ZN27ViewerModelTest_Test_2_TestC2Ev
FNDA:2,_ZN27ViewerModelTest_Test_2_TestD0Ev
FNDA:2,_ZN27ViewerModelTest_Test_2_TestD2Ev
FNDA:2,_ZN27ViewerModelTest_Test_3_Test8TestBodyEv
FNDA:2,_ZN27ViewerModelTest_Test_3_TestC2Ev
FNDA:2,_ZN27ViewerModelTest_Test_3_TestD0Ev
FNDA:2,_ZN27ViewerModelTest_Test_3_TestD2Ev
FNDA:2,_ZN27ViewerModelTest_Test_4_Test8TestBodyEv
FNDA:2,_ZN27ViewerModelTest_Test_4_TestC2Ev
FNDA:2,_ZN27ViewerModelTest_Test_4_TestD0Ev
FNDA:2,_ZN27ViewerModelTest_Test_4_TestD2Ev
FNDA:2,main
FNDA:2,_ZN39ViewerModelTest_Test_SetFacetWidth_Test8TestBodyEv
FNDA:2,_ZN39ViewerModelTest_Test_SetFacetWidth_TestC2Ev
FNDA:2,_ZN39ViewerModelTest_Test_SetFacetWidth_TestD0Ev
FNDA:2,_ZN39ViewerModelTest_Test_SetFacetWidth_TestD2Ev
FNDA:2,_ZN34ViewerModelTest_Test_Strategy_Test8TestBodyEv
FNDA:2,_ZN34ViewerModelTest_Test_Strategy_TestC2Ev
FNDA:2,_ZN34ViewerModelTest_Test_Strategy_TestD0Ev
FNDA:2,_ZN34ViewerModelTest_Test_Strategy_TestD2Ev
FNF:29
FNH:29
DA:7,2
DA:8,2
DA:9,2
DA:12,8
DA:13,2
DA:14,2
DA:15,2
DA:16,2
DA:17,2
DA:18,2
DA:19,2
DA:20,2
DA:21,2
DA:22,2
DA:23,2
DA:24,2
DA:25,2
DA:26,2
DA:28,8
DA:29,2
DA:30,2
DA:31,2
DA:32,2
DA:33,2
DA:34,2
DA:35,2
DA:36,2
DA:37,2
DA:38,2
DA:39,2
DA:40,2
DA:41,2
DA:42,2
DA:44,8
DA:45,2
DA:46,2
DA:47,2
DA:48,2
DA:49,2
DA:50,2
DA:52,8
DA:53,2
DA:54,2
DA:55,2
DA:56,2
DA:57,2
DA:58,2
DA:59,2
DA:60,2
DA:62,2
DA:63,2
DA:64,2
DA:65,2
DA:66,2
DA:67,2
DA:68,2
DA:69,2
DA:70,2
DA:72,8
DA:73,2
DA:74,2
DA:75,2
DA:76,2
DA:77,2
DA:78,2
DA:79,2
DA:80,2
DA:81,2
DA:82,2
DA:83,2
DA:85,8
DA:86,2
DA:87,2
DA:88,2
DA:89,2
DA:90,2
DA:91,2
DA:92,2
DA:93,2
DA:94,2
DA:95,2
DA:96,2
DA:97,2
DA:98,2
DA:99,2
DA:100,2
DA:101,2
DA:103,8
DA:104,2
DA:105,2
DA:106,2
DA:107,2
DA:108,2
DA:109,2
LF:94
LH:94
end_of_record
TN:
SF:/home/meteoriw/CPP4_3DViewer_v2.0-1/src/viewer_model/viewer_model.cpp
FN:13,38,_ZN3s2111ViewerModel15translateFigureERK15translateActionf
FN:134,149,_ZN3s2111ViewerModel10setDefaultEi
FN:156,170,_ZN3s2111ViewerModel13setFacetWidthERK9ScaleType
FN:178,181,_ZN3s2113SetFacetColor8setColorERK6QColorR15ModelDefinition
FN:189,192,_ZN3s2115SetVerticeColor8setColorERK6QColorR15ModelDefinition
FN:200,203,_ZN3s2118SetBackGroundColor8setColorERK6QColorR15ModelDefinition
FN:208,208,_ZN3s2111ViewerModelC2Ev
FN:213,216,_ZN3s2111ViewerModelD2Ev
FN:224,230,_ZN3s2111ViewerModel16SetColorStrategyEPNS_8SetColorERK6QColor
FN:237,240,_ZN3s2111ViewerModel13setFacetColorERK6QColor
FN:247,250,_ZN3s2111ViewerModel15setVerticeColorERK6QColor
FN:257,260,_ZN3s2111ViewerModel18setBackGroundColorERK6QColor
FN:267,275,_ZN3s2111ViewerModel15setVerticeWidthERK9ScaleType
FN:282,284,_ZN3s2111ViewerModel14setVerticeTypeERK11VerticeType
FN:291,294,_ZN3s2111ViewerModel15MouseButtonMoveE6QPoint
FN:301,303,_ZN3s2111ViewerModel14MouseWheelMoveE6QPoint
FN:310,346,_ZN3s2111ViewerModel7loadOBJERK7QString
FN:353,353,_ZN3s2111ViewerModel11getVerticesEv
FN:360,360,_ZN3s2111ViewerModel9getFacetsEv
FN:367,369,_ZN3s2111ViewerModel18getAffineTransformEv
FN:376,376,_ZN3s2111ViewerModel18getModelDefinitionEv
FN:381,415,_ZN3s2111ViewerModel17normalizeVerticesEv
FN:420,433,_ZN3s2111ViewerModel19saveModelDefinitionEv
FN:438,471,_ZN3s2111ViewerModel19readModelDefinitionEv
FN:47,72,_ZN3s2111ViewerModel10rotateAxisERK12rotateActionf
FN:479,485,_ZN3s2111ViewerModel9makeFloatERK7QString
FN:79,84,_ZN3s2111ViewerModel13setProjectionERK14ProjectionType
FN:93,127,_ZN3s2111ViewerModel11scaleFigureERK9ScaleTypef
FNDA:12,_ZN3s2111ViewerModel15translateFigureERK15translateActionf
FNDA:6,_ZN3s2111ViewerModel10setDefaultEi
FNDA:8,_ZN3s2111ViewerModel13setFacetWidthERK9ScaleType
FNDA:2,_ZN3s2113SetFacetColor8setColorERK6QColorR15ModelDefinition
FNDA:2,_ZN3s2115SetVerticeColor8setColorERK6QColorR15ModelDefinition
FNDA:2,_ZN3s2118SetBackGroundColor8setColorERK6QColorR15ModelDefinition
FNDA:14,_ZN3s2111ViewerModelC2Ev
FNDA:14,_ZN3s2111ViewerModelD2Ev
FNDA:6,_ZN3s2111ViewerModel16SetColorStrategyEPNS_8SetColorERK6QColor
FNDA:2,_ZN3s2111ViewerModel13setFacetColorERK6QColor
FNDA:2,_ZN3s2111ViewerModel15setVerticeColorERK6QColor
FNDA:2,_ZN3s2111ViewerModel18setBackGroundColorERK6QColor
FNDA:4,_ZN3s2111ViewerModel15setVerticeWidthERK9ScaleType
FNDA:2,_ZN3s2111ViewerModel14setVerticeTypeERK11VerticeType
FNDA:2,_ZN3s2111ViewerModel15MouseButtonMoveE6QPoint
FNDA:2,_ZN3s2111ViewerModel14MouseWheelMoveE6QPoint
FNDA:2,_ZN3s2111ViewerModel7loadOBJERK7QString
FNDA:0,_ZN3s2111ViewerModel11getVerticesEv
FNDA:0,_ZN3s2111ViewerModel9getFacetsEv
FNDA:42,_ZN3s2111ViewerModel18getAffineTransformEv
FNDA:10,_ZN3s2111ViewerModel18getModelDefinitionEv
FNDA:0,_ZN3s2111ViewerModel17normalizeVerticesEv
FNDA:14,_ZN3s2111ViewerModel19saveModelDefinitionEv
FNDA:14,_ZN3s2111ViewerModel19readModelDefinitionEv
FNDA:12,_ZN3s2111ViewerModel10rotateAxisERK12rotateActionf
FNDA:2,_ZN3s2111ViewerModel9makeFloatERK7QString
FNDA:8,_ZN3s2111ViewerModel13setProjectionERK14ProjectionType
FNDA:16,_ZN3s2111ViewerModel11scaleFigureERK9ScaleTypef
FNF:28
FNH:25
DA:13,12
DA:15,12
DA:16,12
DA:17,2
DA:18,2
DA:19,2
DA:20,2
DA:21,2
DA:22,2
DA:23,2
DA:24,2
DA:25,2
DA:26,2
DA:27,2
DA:28,2
DA:29,2
DA:30,2
DA:31,2
DA:32,2
DA:33,2
DA:34,2
DA:35,0
DA:36,0
DA:38,12
DA:47,12
DA:49,12
DA:50,12
DA:51,2
DA:52,2
DA:53,2
DA:54,2
DA:55,2
DA:56,2
DA:57,2
DA:58,2
DA:59,2
DA:60,2
DA:61,2
DA:62,2
DA:63,2
DA:64,2
DA:65,2
DA:66,2
DA:67,2
DA:68,2
DA:69,0
DA:70,0
DA:72,12
DA:79,8
DA:80,8
DA:81,4
DA:83,4
DA:84,8
DA:93,16
DA:94,16
DA:96,8
DA:97,4
DA:99,4
DA:100,8
DA:101,4
DA:104,4
DA:108,8
DA:109,8
DA:112,8
DA:113,4
DA:115,4
DA:116,8
DA:117,4
DA:119,4
DA:122,8
DA:123,0
DA:124,8
DA:125,0
DA:127,16
DA:134,6
DA:135,6
DA:136,6
DA:137,6
DA:138,6
DA:139,6
DA:140,6
DA:141,6
DA:142,6
DA:143,6
DA:144,6
DA:145,4
DA:146,4
DA:147,4
DA:149,6
DA:156,8
DA:157,8
DA:158,4
DA:159,2
DA:161,2
DA:163,4
DA:164,4
DA:165,2
DA:166,2
DA:167,2
DA:170,8
DA:178,2
DA:180,2
DA:181,2
DA:189,2
DA:191,2
DA:192,2
DA:200,2
DA:202,2
DA:203,2
DA:208,14
DA:213,14
DA:214,14
DA:215,14
DA:216,14
DA:224,6
DA:225,6
DA:226,4
DA:228,6
DA:229,6
DA:230,6
DA:237,2
DA:238,2
DA:239,2
DA:240,2
DA:247,2
DA:248,2
DA:249,2
DA:250,2
DA:257,2
DA:258,2
DA:259,2
DA:260,2
DA:267,4
DA:268,4
DA:269,2
DA:270,2
DA:271,2
DA:272,2
DA:273,2
DA:275,4
DA:282,2
DA:283,2
DA:284,2
DA:291,2
DA:292,2
DA:293,2
DA:294,2
DA:301,2
DA:302,2
DA:303,2
DA:310,2
DA:311,2
DA:312,2
DA:313,2
DA:314,2
DA:315,2
DA:316,2
DA:317,2
DA:318,2
DA:319,2
DA:321,2
DA:322,2
DA:323,2
DA:324,2
DA:325,2
DA:328,0
DA:329,0
DA:330,0
DA:331,0
DA:332,0
DA:333,0
DA:334,0
DA:335,0
DA:336,0
DA:337,0
DA:338,0
DA:339,0
DA:340,0
DA:342,0
DA:344,0
DA:345,0
DA:346,4
DA:353,0
DA:360,0
DA:367,42
DA:368,42
DA:376,10
DA:381,0
DA:382,0
DA:385,0
DA:386,0
DA:387,0
DA:389,0
DA:390,0
DA:391,0
DA:392,0
DA:393,0
DA:394,0
DA:395,0
DA:399,0
DA:400,0
DA:401,0
DA:404,0
DA:405,0
DA:406,0
DA:407,0
DA:410,0
DA:411,0
DA:412,0
DA:413,0
DA:420,14
DA:421,14
DA:422,14
DA:423,0
DA:424,0
DA:426,14
DA:427,14
DA:428,28
DA:429,28
DA:430,14
DA:431,14
DA:432,14
DA:433,14
DA:438,14
DA:439,14
DA:440,14
DA:441,1
DA:442,1
DA:444,13
DA:445,13
DA:446,13
DA:447,13
DA:448,13
DA:449,0
DA:451,13
DA:452,13
DA:453,13
DA:454,13
DA:455,13
DA:456,13
DA:458,13
DA:460,13
DA:461,13
DA:462,0
DA:463,0
DA:464,0
DA:465,0
DA:466,13
DA:468,13
DA:469,13
DA:470,13
DA:471,14
DA:479,2
DA:480,2
DA:481,2
DA:482,2
DA:483,2
DA:484,2
DA:485,2
LF:259
LH:205
end_of_record
TN:
SF:/home/meteoriw/CPP4_3DViewer_v2.0-1/src/viewer_model/viewer_model.h
FN:13,13,_ZN3s218SetColorD0Ev
FN:13,13,_ZN3s218SetColorD2Ev
FNDA:0,_ZN3s218SetColorD0Ev
FNDA:6,_ZN3s218SetColorD2Ev
FNF:2
FNH:1
DA:13,6
LF:1
LH:1
end_of_record
